target datalayout = "e-m:e-p270:32:32-p271:32:32-p272:64:64-i64:64-i128:128-f80:128-n8:16:32:64-S128"
target triple = "x86_64-pc-linux-gnu"

%struct.lzma_options_lzma = type { i32, ptr, i32, i32, i32, i32, i32, i32, i32, i32, i32, i32, i32, i32, i32, i32, i32, i32, i32, i32, i32, i32, ptr, ptr }

; Function Attrs: nounwind uwtable
define dso_local i32 @lzma_lzma2_props_decode(ptr noundef %0, ptr noundef %1, ptr noundef %2, i64 noundef %3) #0 {
  %5 = alloca i32, align 4
  %6 = alloca ptr, align 8
  %7 = alloca ptr, align 8
  %8 = alloca ptr, align 8
  %9 = alloca i64, align 8
  %10 = alloca ptr, align 8
  %11 = alloca i32, align 4
  store ptr %0, ptr %6, align 8, !tbaa !9
  store ptr %1, ptr %7, align 8, !tbaa !9
  store ptr %2, ptr %8, align 8, !tbaa !29
  store i64 %3, ptr %9, align 8, !tbaa !12
  %12 = load i64, ptr %9, align 8, !tbaa !12
  %13 = icmp ne i64 %12, 1
  br i1 %13, label %14, label %15

14:                                               ; preds = %4
  store i32 8, ptr %5, align 4
  br label %72

15:                                               ; preds = %4
  %16 = load ptr, ptr %8, align 8, !tbaa !29
  %17 = getelementptr inbounds i8, ptr %16, i64 0
  %18 = load i8, ptr %17, align 1, !tbaa !30
  %19 = zext i8 %18 to i32
  %20 = and i32 %19, 192
  %21 = icmp ne i32 %20, 0
  br i1 %21, label %22, label %23

22:                                               ; preds = %15
  store i32 8, ptr %5, align 4
  br label %72

23:                                               ; preds = %15
  %24 = load ptr, ptr %8, align 8, !tbaa !29
  %25 = getelementptr inbounds i8, ptr %24, i64 0
  %26 = load i8, ptr %25, align 1, !tbaa !30
  %27 = zext i8 %26 to i32
  %28 = icmp sgt i32 %27, 40
  br i1 %28, label %29, label %30

29:                                               ; preds = %23
  store i32 8, ptr %5, align 4
  br label %72

30:                                               ; preds = %23
  call void @llvm.lifetime.start.p0(i64 8, ptr %10) #6
  %31 = load ptr, ptr %7, align 8, !tbaa !9
  %32 = call ptr @lzma_alloc(i64 noundef 112, ptr noundef %31)
  store ptr %32, ptr %10, align 8, !tbaa !9
  %33 = load ptr, ptr %10, align 8, !tbaa !9
  %34 = icmp eq ptr %33, null
  br i1 %34, label %35, label %36

35:                                               ; preds = %30
  store i32 5, ptr %5, align 4
  store i32 1, ptr %11, align 4
  br label %71

36:                                               ; preds = %30
  %37 = load ptr, ptr %8, align 8, !tbaa !29
  %38 = getelementptr inbounds i8, ptr %37, i64 0
  %39 = load i8, ptr %38, align 1, !tbaa !30
  %40 = zext i8 %39 to i32
  %41 = icmp eq i32 %40, 40
  br i1 %41, label %42, label %45

42:                                               ; preds = %36
  %43 = load ptr, ptr %10, align 8, !tbaa !9
  %44 = getelementptr inbounds nuw %struct.lzma_options_lzma, ptr %43, i32 0, i32 0
  store i32 -1, ptr %44, align 8, !tbaa !31
  br label %64

45:                                               ; preds = %36
  %46 = load ptr, ptr %8, align 8, !tbaa !29
  %47 = getelementptr inbounds i8, ptr %46, i64 0
  %48 = load i8, ptr %47, align 1, !tbaa !30
  %49 = zext i8 %48 to i32
  %50 = and i32 %49, 1
  %51 = or i32 2, %50
  %52 = load ptr, ptr %10, align 8, !tbaa !9
  %53 = getelementptr inbounds nuw %struct.lzma_options_lzma, ptr %52, i32 0, i32 0
  store i32 %51, ptr %53, align 8, !tbaa !31
  %54 = load ptr, ptr %8, align 8, !tbaa !29
  %55 = getelementptr inbounds i8, ptr %54, i64 0
  %56 = load i8, ptr %55, align 1, !tbaa !30
  %57 = zext i8 %56 to i32
  %58 = udiv i32 %57, 2
  %59 = add i32 %58, 11
  %60 = load ptr, ptr %10, align 8, !tbaa !9
  %61 = getelementptr inbounds nuw %struct.lzma_options_lzma, ptr %60, i32 0, i32 0
  %62 = load i32, ptr %61, align 8, !tbaa !31
  %63 = shl i32 %62, %59
  store i32 %63, ptr %61, align 8, !tbaa !31
  br label %64

64:                                               ; preds = %45, %42
  %65 = load ptr, ptr %10, align 8, !tbaa !9
  %66 = getelementptr inbounds nuw %struct.lzma_options_lzma, ptr %65, i32 0, i32 1
  store ptr null, ptr %66, align 8, !tbaa !26
  %67 = load ptr, ptr %10, align 8, !tbaa !9
  %68 = getelementptr inbounds nuw %struct.lzma_options_lzma, ptr %67, i32 0, i32 2
  store i32 0, ptr %68, align 8, !tbaa !27
  %69 = load ptr, ptr %10, align 8, !tbaa !9
  %70 = load ptr, ptr %6, align 8, !tbaa !9
  store ptr %69, ptr %70, align 8, !tbaa !9
  store i32 0, ptr %5, align 4
  store i32 1, ptr %11, align 4
  br label %71

71:                                               ; preds = %64, %35
  call void @llvm.lifetime.end.p0(i64 8, ptr %10) #6
  br label %72

72:                                               ; preds = %71, %29, %22, %14
  %73 = load i32, ptr %5, align 4
  ret i32 %73
}