; Function Attrs: nounwind uwtable
define dso_local range(i32 0, 9) i32 @lzma_lzma2_props_decode(ptr noundef writeonly captures(none) %0, ptr noundef %1, ptr noundef readonly captures(none) %2, i64 noundef %3) local_unnamed_addr #0 {
  %.not = icmp eq i64 %3, 1
  br i1 %.not, label %5, label %25

5:                                                ; preds = %4
  %6 = load i8, ptr %2, align 1, !tbaa !22
  %7 = icmp ugt i8 %6, 40
  br i1 %7, label %25, label %8

8:                                                ; preds = %5
  %9 = tail call ptr @lzma_alloc(i64 noundef 112, ptr noundef %1) #4
  %10 = icmp eq ptr %9, null
  br i1 %10, label %25, label %11

11:                                               ; preds = %8
  %12 = load i8, ptr %2, align 1, !tbaa !22
  %13 = icmp eq i8 %12, 40
  br i1 %13, label %22, label %14

14:                                               ; preds = %11
  %15 = and i8 %12, 1
  %16 = or disjoint i8 %15, 2
  %17 = zext nneg i8 %16 to i32
  store i32 %17, ptr %9, align 8, !tbaa !23
  %18 = load i8, ptr %2, align 1, !tbaa !22
  %19 = lshr i8 %18, 1
  %narrow = add nuw i8 %19, 11
  %20 = zext nneg i8 %narrow to i32
  %21 = shl i32 %17, %20
  br label %22

22:                                               ; preds = %11, %14
  %storemerge = phi i32 [ %21, %14 ], [ -1, %11 ]
  store i32 %storemerge, ptr %9, align 8, !tbaa !23
  %23 = getelementptr inbounds nuw i8, ptr %9, i64 8
  store ptr null, ptr %23, align 8, !tbaa !19
  %24 = getelementptr inbounds nuw i8, ptr %9, i64 16
  store i32 0, ptr %24, align 8, !tbaa !20
  store ptr %9, ptr %0, align 8, !tbaa !24
  br label %25

25:                                               ; preds = %22, %8, %5, %4
  %.0 = phi i32 [ 8, %4 ], [ 8, %5 ], [ 0, %22 ], [ 5, %8 ]
  ret i32 %.0
}